; Function Attrs: mustprogress nofree norecurse nosync nounwind willreturn memory(argmem: readwrite) uwtable
define void @_ZN9grpc_core12BatchBuilder17PendingCompletionC2ENS_13RefCountedPtrINS0_5BatchEEE(ptr noundef nonnull align 8 dereferenceable(64) %this, ptr nocapture noundef %batch) unnamed_addr #6 align 2 personality ptr @__gxx_personality_v0 {
entry:
  store ptr getelementptr inbounds ({ [3 x ptr] }, ptr @_ZTVN9grpc_core12BatchBuilder17PendingCompletionE, i64 0, i32 0, i64 2), ptr %this, align 8
  %done_latch = getelementptr inbounds i8, ptr %this, i64 40
  store i64 0, ptr %done_latch, align 8
  %has_value_.i = getelementptr inbounds i8, ptr %this, i64 48
  store i8 0, ptr %has_value_.i, align 8
  %waiter_.i = getelementptr inbounds i8, ptr %this, i64 50
  store i16 0, ptr %waiter_.i, align 2
  %batch2 = getelementptr inbounds i8, ptr %this, i64 56
  store ptr null, ptr %batch2, align 8
  %0 = load ptr, ptr %batch, align 8
  store ptr %0, ptr %batch2, align 8
  store ptr null, ptr %batch, align 8
  %cb1.i = getelementptr inbounds i8, ptr %this, i64 16
  store ptr @_ZN9grpc_core12BatchBuilder17PendingCompletion18CompletionCallbackEPvN4absl12lts_202308026StatusE, ptr %cb1.i, align 8
  %cb_arg2.i = getelementptr inbounds i8, ptr %this, i64 24
  store ptr %this, ptr %cb_arg2.i, align 8
  %error_data.i = getelementptr inbounds i8, ptr %this, i64 32
  store i64 0, ptr %error_data.i, align 8
  ret void
}